target datalayout = "e-m:e-p270:32:32-p271:32:32-p272:64:64-i64:64-i128:128-f80:128-n8:16:32:64-S128"
target triple = "x86_64-pc-linux-gnu"

%struct.rb_io = type { i64, ptr, i32, i32, i32, i32, i64, ptr, %struct.rb_io_internal_buffer, %struct.rb_io_internal_buffer, i64, %struct.rb_io_encoding, ptr, %struct.rb_io_internal_buffer, ptr, i64, i32, i32, i64, i64, i64 }
%struct.rb_io_encoding = type { ptr, ptr, i32, i64 }
%struct.rb_io_internal_buffer = type <{ ptr, i32, i32, i32 }>

@rb_eIOError = dso_local global i64 0, align 8
@.str.4 = private unnamed_addr constant [21 x i8] c"uninitialized stream\00", align 1
@closed_stream = internal constant [14 x i8] c"closed stream\00", align 1
@.str.193 = private unnamed_addr constant [7 x i8] c"fd:%d \00", align 1
@__func__.io_fillbuf = private unnamed_addr constant [11 x i8] c"io_fillbuf\00", align 1

; Function Attrs: nounwind sspstrong uwtable
define internal void @io_fd_check_closed(i32 noundef %0) #0 {
  %2 = alloca i32, align 4
  store i32 %0, ptr %2, align 4, !tbaa !13
  %3 = load i32, ptr %2, align 4, !tbaa !13
  %4 = icmp slt i32 %3, 0
  br i1 %4, label %5, label %7

5:                                                ; preds = %1
  call void @rb_thread_check_ints()
  %6 = load i64, ptr @rb_eIOError, align 8, !tbaa !32
  call void (i64, ptr, ...) @rb_raise(i64 noundef %6, ptr noundef @closed_stream) #31
  unreachable

7:                                                ; preds = %1
  ret void
}

; Function Attrs: nounwind sspstrong uwtable
define dso_local void @rb_io_check_initialized(ptr noundef %0) #0 {
  %2 = alloca ptr, align 8
  store ptr %0, ptr %2, align 8, !tbaa !7
  %3 = load ptr, ptr %2, align 8, !tbaa !7
  %4 = icmp ne ptr %3, null
  br i1 %4, label %7, label %5

5:                                                ; preds = %1
  %6 = load i64, ptr @rb_eIOError, align 8, !tbaa !32
  call void (i64, ptr, ...) @rb_raise(i64 noundef %6, ptr noundef @.str.4) #31
  unreachable

7:                                                ; preds = %1
  ret void
}

; Function Attrs: nounwind sspstrong uwtable
define dso_local void @rb_io_check_closed(ptr noundef %0) #0 {
  %2 = alloca ptr, align 8
  store ptr %0, ptr %2, align 8, !tbaa !7
  %3 = load ptr, ptr %2, align 8, !tbaa !7
  call void @rb_io_check_initialized(ptr noundef %3)
  %4 = load ptr, ptr %2, align 8, !tbaa !7
  %5 = getelementptr inbounds nuw %struct.rb_io, ptr %4, i32 0, i32 2
  %6 = load i32, ptr %5, align 8, !tbaa !15
  call void @io_fd_check_closed(i32 noundef %6)
  ret void
}

; Function Attrs: inlinehint nounwind sspstrong willreturn memory(none) uwtable
define internal zeroext i1 @RB_NIL_P(i64 noundef %0) #9 {
  %2 = alloca i64, align 8
  store i64 %0, ptr %2, align 8, !tbaa !32
  %3 = load i64, ptr %2, align 8, !tbaa !32
  %4 = icmp eq i64 %3, 4
  ret i1 %4
}

; Function Attrs: nounwind sspstrong uwtable
define internal i32 @fptr_wait_readable(ptr noundef %0) #0 {
  %2 = alloca ptr, align 8
  %3 = alloca i32, align 4
  store ptr %0, ptr %2, align 8, !tbaa !7
  call void @llvm.lifetime.start.p0(i64 4, ptr %3) #28
  %4 = call ptr @rb_errno_ptr()
  %5 = load i32, ptr %4, align 4, !tbaa !13
  %6 = load ptr, ptr %2, align 8, !tbaa !7
  %7 = getelementptr inbounds nuw %struct.rb_io, ptr %6, i32 0, i32 0
  %8 = load i64, ptr %7, align 8, !tbaa !40
  %9 = call i32 @rb_io_maybe_wait_readable(i32 noundef %5, i64 noundef %8, i64 noundef 4)
  store i32 %9, ptr %3, align 4, !tbaa !13
  %10 = load i32, ptr %3, align 4, !tbaa !13
  %11 = icmp ne i32 %10, 0
  br i1 %11, label %12, label %14

12:                                               ; preds = %1
  %13 = load ptr, ptr %2, align 8, !tbaa !7
  call void @rb_io_check_closed(ptr noundef %13)
  br label %14

14:                                               ; preds = %12, %1
  %15 = load i32, ptr %3, align 4, !tbaa !13
  call void @llvm.lifetime.end.p0(i64 4, ptr %3) #28
  ret i32 %15
}

; Function Attrs: nounwind sspstrong uwtable
define internal i32 @io_fillbuf(ptr noundef %0) #0 {
  %2 = alloca i32, align 4
  %3 = alloca ptr, align 8
  %4 = alloca i64, align 8
  %5 = alloca i32, align 4
  %6 = alloca i64, align 8
  %7 = alloca i32, align 4
  store ptr %0, ptr %3, align 8, !tbaa !7
  call void @llvm.lifetime.start.p0(i64 8, ptr %4) #28
  %8 = load ptr, ptr %3, align 8, !tbaa !7
  %9 = getelementptr inbounds nuw %struct.rb_io, ptr %8, i32 0, i32 9
  %10 = getelementptr inbounds nuw %struct.rb_io_internal_buffer, ptr %9, i32 0, i32 0
  %11 = load ptr, ptr %10, align 4, !tbaa !58
  %12 = icmp eq ptr %11, null
  br i1 %12, label %13, label %46

13:                                               ; preds = %1
  %14 = load ptr, ptr %3, align 8, !tbaa !7
  %15 = getelementptr inbounds nuw %struct.rb_io, ptr %14, i32 0, i32 9
  %16 = getelementptr inbounds nuw %struct.rb_io_internal_buffer, ptr %15, i32 0, i32 1
  store i32 0, ptr %16, align 4, !tbaa !47
  %17 = load ptr, ptr %3, align 8, !tbaa !7
  %18 = getelementptr inbounds nuw %struct.rb_io, ptr %17, i32 0, i32 9
  %19 = getelementptr inbounds nuw %struct.rb_io_internal_buffer, ptr %18, i32 0, i32 2
  store i32 0, ptr %19, align 4, !tbaa !44
  %20 = load ptr, ptr %3, align 8, !tbaa !7
  %21 = getelementptr inbounds nuw %struct.rb_io, ptr %20, i32 0, i32 11
  %22 = getelementptr inbounds nuw %struct.rb_io_encoding, ptr %21, i32 0, i32 1
  %23 = load ptr, ptr %22, align 8, !tbaa !59
  %24 = icmp ne ptr %23, null
  br i1 %24, label %31, label %25

25:                                               ; preds = %13
  %26 = load ptr, ptr %3, align 8, !tbaa !7
  %27 = getelementptr inbounds nuw %struct.rb_io, ptr %26, i32 0, i32 3
  %28 = load i32, ptr %27, align 4, !tbaa !38
  %29 = and i32 %28, 4096
  %30 = icmp ne i32 %29, 0
  br label %31

31:                                               ; preds = %25, %13
  %32 = phi i1 [ true, %13 ], [ %30, %25 ]
  %33 = select i1 %32, i32 131072, i32 8192
  %34 = load ptr, ptr %3, align 8, !tbaa !7
  %35 = getelementptr inbounds nuw %struct.rb_io, ptr %34, i32 0, i32 9
  %36 = getelementptr inbounds nuw %struct.rb_io_internal_buffer, ptr %35, i32 0, i32 3
  store i32 %33, ptr %36, align 4, !tbaa !60
  %37 = load ptr, ptr %3, align 8, !tbaa !7
  %38 = getelementptr inbounds nuw %struct.rb_io, ptr %37, i32 0, i32 9
  %39 = getelementptr inbounds nuw %struct.rb_io_internal_buffer, ptr %38, i32 0, i32 3
  %40 = load i32, ptr %39, align 4, !tbaa !60
  %41 = sext i32 %40 to i64
  %42 = call noalias nonnull ptr @ruby_xmalloc2(i64 noundef %41, i64 noundef 1) #34
  %43 = load ptr, ptr %3, align 8, !tbaa !7
  %44 = getelementptr inbounds nuw %struct.rb_io, ptr %43, i32 0, i32 9
  %45 = getelementptr inbounds nuw %struct.rb_io_internal_buffer, ptr %44, i32 0, i32 0
  store ptr %42, ptr %45, align 4, !tbaa !58
  br label %46

46:                                               ; preds = %31, %1
  %47 = load ptr, ptr %3, align 8, !tbaa !7
  %48 = getelementptr inbounds nuw %struct.rb_io, ptr %47, i32 0, i32 9
  %49 = getelementptr inbounds nuw %struct.rb_io_internal_buffer, ptr %48, i32 0, i32 2
  %50 = load i32, ptr %49, align 4, !tbaa !44
  %51 = icmp eq i32 %50, 0
  br i1 %51, label %52, label %110

52:                                               ; preds = %46
  br label %53

53:                                               ; preds = %71, %52
  %54 = load ptr, ptr %3, align 8, !tbaa !7
  %55 = load ptr, ptr %3, align 8, !tbaa !7
  %56 = getelementptr inbounds nuw %struct.rb_io, ptr %55, i32 0, i32 9
  %57 = getelementptr inbounds nuw %struct.rb_io_internal_buffer, ptr %56, i32 0, i32 0
  %58 = load ptr, ptr %57, align 4, !tbaa !58
  %59 = load ptr, ptr %3, align 8, !tbaa !7
  %60 = getelementptr inbounds nuw %struct.rb_io, ptr %59, i32 0, i32 9
  %61 = getelementptr inbounds nuw %struct.rb_io_internal_buffer, ptr %60, i32 0, i32 3
  %62 = load i32, ptr %61, align 4, !tbaa !60
  %63 = sext i32 %62 to i64
  %64 = call i64 @rb_io_read_memory(ptr noundef %54, ptr noundef %58, i64 noundef %63)
  store i64 %64, ptr %4, align 8, !tbaa !32
  %65 = load i64, ptr %4, align 8, !tbaa !32
  %66 = icmp slt i64 %65, 0
  br i1 %66, label %67, label %92

67:                                               ; preds = %53
  %68 = load ptr, ptr %3, align 8, !tbaa !7
  %69 = call i32 @fptr_wait_readable(ptr noundef %68)
  %70 = icmp ne i32 %69, 0
  br i1 %70, label %71, label %72

71:                                               ; preds = %67
  br label %53

72:                                               ; preds = %67
  call void @llvm.lifetime.start.p0(i64 4, ptr %5) #28
  %73 = call ptr @rb_errno_ptr()
  %74 = load i32, ptr %73, align 4, !tbaa !13
  store i32 %74, ptr %5, align 4, !tbaa !13
  call void @llvm.lifetime.start.p0(i64 8, ptr %6) #28
  %75 = load ptr, ptr %3, align 8, !tbaa !7
  %76 = getelementptr inbounds nuw %struct.rb_io, ptr %75, i32 0, i32 2
  %77 = load i32, ptr %76, align 8, !tbaa !15
  %78 = call i64 (ptr, ...) @rb_sprintf(ptr noundef @.str.193, i32 noundef %77)
  store i64 %78, ptr %6, align 8, !tbaa !32
  %79 = load ptr, ptr %3, align 8, !tbaa !7
  %80 = getelementptr inbounds nuw %struct.rb_io, ptr %79, i32 0, i32 6
  %81 = load i64, ptr %80, align 8, !tbaa !42
  %82 = call zeroext i1 @RB_NIL_P(i64 noundef %81) #33
  br i1 %82, label %89, label %83

83:                                               ; preds = %72
  %84 = load i64, ptr %6, align 8, !tbaa !32
  %85 = load ptr, ptr %3, align 8, !tbaa !7
  %86 = getelementptr inbounds nuw %struct.rb_io, ptr %85, i32 0, i32 6
  %87 = load i64, ptr %86, align 8, !tbaa !42
  %88 = call i64 @rb_str_append(i64 noundef %84, i64 noundef %87)
  br label %89

89:                                               ; preds = %83, %72
  %90 = load i32, ptr %5, align 4, !tbaa !13
  %91 = load i64, ptr %6, align 8, !tbaa !32
  call void @rb_syserr_fail_path_in(ptr noundef @__func__.io_fillbuf, i32 noundef %90, i64 noundef %91) #31
  unreachable

92:                                               ; preds = %53
  %93 = load i64, ptr %4, align 8, !tbaa !32
  %94 = icmp sgt i64 %93, 0
  br i1 %94, label %95, label %97

95:                                               ; preds = %92
  %96 = load ptr, ptr %3, align 8, !tbaa !7
  call void @rb_io_check_closed(ptr noundef %96)
  br label %97

97:                                               ; preds = %95, %92
  %98 = load ptr, ptr %3, align 8, !tbaa !7
  %99 = getelementptr inbounds nuw %struct.rb_io, ptr %98, i32 0, i32 9
  %100 = getelementptr inbounds nuw %struct.rb_io_internal_buffer, ptr %99, i32 0, i32 1
  store i32 0, ptr %100, align 4, !tbaa !47
  %101 = load i64, ptr %4, align 8, !tbaa !32
  %102 = trunc i64 %101 to i32
  %103 = load ptr, ptr %3, align 8, !tbaa !7
  %104 = getelementptr inbounds nuw %struct.rb_io, ptr %103, i32 0, i32 9
  %105 = getelementptr inbounds nuw %struct.rb_io_internal_buffer, ptr %104, i32 0, i32 2
  store i32 %102, ptr %105, align 4, !tbaa !44
  %106 = load i64, ptr %4, align 8, !tbaa !32
  %107 = icmp eq i64 %106, 0
  br i1 %107, label %108, label %109

108:                                              ; preds = %97
  store i32 -1, ptr %2, align 4
  store i32 1, ptr %7, align 4
  br label %111

109:                                              ; preds = %97
  br label %110

110:                                              ; preds = %109, %46
  store i32 0, ptr %2, align 4
  store i32 1, ptr %7, align 4
  br label %111

111:                                              ; preds = %110, %108
  call void @llvm.lifetime.end.p0(i64 8, ptr %4) #28
  %112 = load i32, ptr %2, align 4
  ret i32 %112
}