; Function Attrs: nounwind sspstrong uwtable
define internal fastcc range(i32 -1, 1) i32 @io_fillbuf(ptr noundef %0) unnamed_addr #0 {
  %2 = getelementptr inbounds nuw i8, ptr %0, i64 68
  %3 = load ptr, ptr %2, align 4, !tbaa !55
  %4 = icmp eq ptr %3, null
  br i1 %4, label %5, label %20

5:                                                ; preds = %1
  %6 = getelementptr inbounds nuw i8, ptr %0, i64 76
  store i32 0, ptr %6, align 4, !tbaa !43
  %7 = getelementptr inbounds nuw i8, ptr %0, i64 80
  store i32 0, ptr %7, align 4, !tbaa !42
  %8 = getelementptr inbounds nuw i8, ptr %0, i64 104
  %9 = load ptr, ptr %8, align 8, !tbaa !56
  %.not = icmp eq ptr %9, null
  br i1 %.not, label %10, label %15

10:                                               ; preds = %5
  %11 = getelementptr inbounds nuw i8, ptr %0, i64 20
  %12 = load i32, ptr %11, align 4, !tbaa !34
  %13 = and i32 %12, 4096
  %.not27 = icmp eq i32 %13, 0
  %14 = select i1 %.not27, i32 8192, i32 131072
  br label %15

15:                                               ; preds = %10, %5
  %16 = phi i32 [ 131072, %5 ], [ %14, %10 ]
  %17 = getelementptr inbounds nuw i8, ptr %0, i64 84
  store i32 %16, ptr %17, align 4, !tbaa !57
  %18 = zext nneg i32 %16 to i64
  %19 = tail call noalias nonnull ptr @ruby_xmalloc2(i64 noundef %18, i64 noundef 1) #32
  store ptr %19, ptr %2, align 4, !tbaa !55
  br label %20

20:                                               ; preds = %15, %1
  %21 = getelementptr inbounds nuw i8, ptr %0, i64 80
  %22 = load i32, ptr %21, align 4, !tbaa !42
  %23 = icmp eq i32 %22, 0
  br i1 %23, label %fptr_wait_readable.exit.preheader, label %59

fptr_wait_readable.exit.preheader:                ; preds = %20
  %24 = getelementptr inbounds nuw i8, ptr %0, i64 84
  %25 = getelementptr inbounds nuw i8, ptr %0, i64 16
  br label %fptr_wait_readable.exit

fptr_wait_readable.exit:                          ; preds = %fptr_wait_readable.exit.preheader, %rb_io_check_initialized.exit.i.i
  %26 = load ptr, ptr %2, align 4, !tbaa !55
  %27 = load i32, ptr %24, align 4, !tbaa !57
  %28 = sext i32 %27 to i64
  %29 = tail call fastcc i64 @rb_io_read_memory(ptr noundef nonnull %0, ptr noundef %26, i64 noundef %28)
  %30 = icmp slt i64 %29, 0
  br i1 %30, label %31, label %51

31:                                               ; preds = %fptr_wait_readable.exit
  %32 = tail call ptr @rb_errno_ptr() #28
  %33 = load i32, ptr %32, align 4, !tbaa !20
  %34 = load i64, ptr %0, align 8, !tbaa !38
  %35 = tail call i32 @rb_io_maybe_wait_readable(i32 noundef %33, i64 noundef %34, i64 noundef 4)
  %.not.i = icmp eq i32 %35, 0
  br i1 %.not.i, label %40, label %rb_io_check_initialized.exit.i.i

rb_io_check_initialized.exit.i.i:                 ; preds = %31
  %36 = load i32, ptr %25, align 8, !tbaa !7
  %37 = icmp slt i32 %36, 0
  br i1 %37, label %38, label %fptr_wait_readable.exit

38:                                               ; preds = %rb_io_check_initialized.exit.i.i
  tail call void @rb_thread_check_ints() #28
  %39 = load i64, ptr @rb_eIOError, align 8, !tbaa !23
  tail call void (i64, ptr, ...) @rb_raise(i64 noundef %39, ptr noundef nonnull @closed_stream) #30
  unreachable

40:                                               ; preds = %31
  %41 = tail call ptr @rb_errno_ptr() #28
  %42 = load i32, ptr %41, align 4, !tbaa !20
  %43 = load i32, ptr %25, align 8, !tbaa !7
  %44 = tail call i64 (ptr, ...) @rb_sprintf(ptr noundef nonnull @.str.193, i32 noundef %43) #28
  %45 = getelementptr inbounds nuw i8, ptr %0, i64 32
  %46 = load i64, ptr %45, align 8, !tbaa !40
  %47 = icmp eq i64 %46, 4
  br i1 %47, label %50, label %48

48:                                               ; preds = %40
  %49 = tail call i64 @rb_str_append(i64 noundef %44, i64 noundef %46) #28
  br label %50

50:                                               ; preds = %48, %40
  tail call void @rb_syserr_fail_path_in(ptr noundef nonnull @__func__.io_fillbuf, i32 noundef %42, i64 noundef %44) #30
  unreachable

51:                                               ; preds = %fptr_wait_readable.exit
  %.not28 = icmp eq i64 %29, 0
  br i1 %.not28, label %rb_io_check_closed.exit.thread, label %rb_io_check_initialized.exit.i

rb_io_check_closed.exit.thread:                   ; preds = %51
  %52 = getelementptr inbounds nuw i8, ptr %0, i64 76
  store i32 0, ptr %52, align 4, !tbaa !43
  br label %.sink.split

rb_io_check_initialized.exit.i:                   ; preds = %51
  %53 = load i32, ptr %25, align 8, !tbaa !7
  %54 = icmp slt i32 %53, 0
  br i1 %54, label %55, label %rb_io_check_closed.exit

55:                                               ; preds = %rb_io_check_initialized.exit.i
  tail call void @rb_thread_check_ints() #28
  %56 = load i64, ptr @rb_eIOError, align 8, !tbaa !23
  tail call void (i64, ptr, ...) @rb_raise(i64 noundef %56, ptr noundef nonnull @closed_stream) #30
  unreachable

rb_io_check_closed.exit:                          ; preds = %rb_io_check_initialized.exit.i
  %57 = getelementptr inbounds nuw i8, ptr %0, i64 76
  store i32 0, ptr %57, align 4, !tbaa !43
  %58 = trunc i64 %29 to i32
  br label %.sink.split

.sink.split:                                      ; preds = %rb_io_check_closed.exit.thread, %rb_io_check_closed.exit
  %.sink = phi i32 [ %58, %rb_io_check_closed.exit ], [ 0, %rb_io_check_closed.exit.thread ]
  %.0.ph = phi i32 [ 0, %rb_io_check_closed.exit ], [ -1, %rb_io_check_closed.exit.thread ]
  store i32 %.sink, ptr %21, align 4, !tbaa !42
  br label %59

59:                                               ; preds = %.sink.split, %20
  %.0 = phi i32 [ 0, %20 ], [ %.0.ph, %.sink.split ]
  ret i32 %.0
}